target datalayout = "e-m:e-p270:32:32-p271:32:32-p272:64:64-i64:64-i128:128-f80:128-n8:16:32:64-S128"
target triple = "x86_64-pc-linux-gnu"

%struct.X86Features = type { [2 x i64], ptr }

@.str.16 = private unnamed_addr constant [36 x i8] c"FATAL ERROR %s -> in %s @ in %s:%d \00", align 1
@.str.17 = private unnamed_addr constant [22 x i8] c"Should be unreachable\00", align 1
@.str.18 = private unnamed_addr constant [107 x i8] c"generated/home/dtcxzyw/WorkSpace/Projects/compilers/llvm-opt-benchmark/bench/c3c/c3c/src/compiler/target.c\00", align 1
@__func__.x86_features_add_feature = private unnamed_addr constant [25 x i8] c"x86_features_add_feature\00", align 1

; Function Attrs: nounwind uwtable
define internal void @x64features_add_feature_single(ptr noundef %0, i32 noundef %1) #0 {
  %3 = alloca ptr, align 8
  %4 = alloca i32, align 4
  store ptr %0, ptr %3, align 8
  store i32 %1, ptr %4, align 4
  %5 = load i32, ptr %4, align 4
  %6 = icmp ult i32 %5, 64
  br i1 %6, label %7, label %16

7:                                                ; preds = %2
  %8 = load i32, ptr %4, align 4
  %9 = zext i32 %8 to i64
  %10 = shl i64 1, %9
  %11 = load ptr, ptr %3, align 8
  %12 = getelementptr inbounds %struct.X86Features, ptr %11, i32 0, i32 0
  %13 = getelementptr inbounds [2 x i64], ptr %12, i64 0, i64 0
  %14 = load i64, ptr %13, align 8
  %15 = or i64 %14, %10
  store i64 %15, ptr %13, align 8
  br label %26

16:                                               ; preds = %2
  %17 = load i32, ptr %4, align 4
  %18 = sub i32 %17, 64
  %19 = zext i32 %18 to i64
  %20 = shl i64 1, %19
  %21 = load ptr, ptr %3, align 8
  %22 = getelementptr inbounds %struct.X86Features, ptr %21, i32 0, i32 0
  %23 = getelementptr inbounds [2 x i64], ptr %22, i64 0, i64 1
  %24 = load i64, ptr %23, align 8
  %25 = or i64 %24, %20
  store i64 %25, ptr %23, align 8
  br label %26

26:                                               ; preds = %16, %7
  %27 = load ptr, ptr %3, align 8
  %28 = getelementptr inbounds %struct.X86Features, ptr %27, i32 0, i32 1
  store ptr null, ptr %28, align 8
  ret void
}

; Function Attrs: nounwind uwtable
define internal void @x86_features_add_feature(ptr noundef %0, i32 noundef %1) #0 {
  %3 = alloca ptr, align 8
  %4 = alloca i32, align 4
  store ptr %0, ptr %3, align 8
  store i32 %1, ptr %4, align 4
  %5 = load ptr, ptr %3, align 8
  %6 = load i32, ptr %4, align 4
  call void @x64features_add_feature_single(ptr noundef %5, i32 noundef %6)
  %7 = load i32, ptr %4, align 4
  switch i32 %7, label %55 [
    i32 83, label %8
    i32 49, label %8
    i32 60, label %8
    i32 1, label %10
    i32 84, label %10
    i32 77, label %10
    i32 52, label %10
    i32 85, label %12
    i32 87, label %14
    i32 88, label %14
    i32 86, label %16
    i32 7, label %18
    i32 17, label %20
    i32 8, label %24
    i32 44, label %24
    i32 45, label %24
    i32 80, label %24
    i32 92, label %26
    i32 93, label %29
    i32 101, label %32
    i32 102, label %32
    i32 103, label %32
    i32 14, label %34
    i32 13, label %34
    i32 15, label %34
    i32 16, label %34
    i32 20, label %34
    i32 23, label %34
    i32 19, label %34
    i32 24, label %34
    i32 26, label %34
    i32 25, label %34
    i32 46, label %36
    i32 99, label %39
    i32 2, label %41
    i32 4, label %41
    i32 5, label %41
    i32 3, label %41
    i32 31, label %43
    i32 30, label %43
    i32 27, label %43
    i32 28, label %43
    i32 29, label %43
    i32 78, label %43
    i32 81, label %43
    i32 18, label %45
    i32 97, label %49
    i32 21, label %51
    i32 22, label %51
    i32 12, label %51
    i32 11, label %51
    i32 10, label %53
    i32 9, label %53
    i32 0, label %54
    i32 6, label %54
    i32 32, label %54
    i32 33, label %54
    i32 34, label %54
    i32 35, label %54
    i32 36, label %54
    i32 37, label %54
    i32 38, label %54
    i32 40, label %54
    i32 41, label %54
    i32 39, label %54
    i32 42, label %54
    i32 43, label %54
    i32 47, label %54
    i32 48, label %54
    i32 50, label %54
    i32 51, label %54
    i32 53, label %54
    i32 54, label %54
    i32 59, label %54
    i32 55, label %54
    i32 56, label %54
    i32 57, label %54
    i32 58, label %54
    i32 61, label %54
    i32 63, label %54
    i32 62, label %54
    i32 64, label %54
    i32 65, label %54
    i32 66, label %54
    i32 67, label %54
    i32 68, label %54
    i32 69, label %54
    i32 70, label %54
    i32 71, label %54
    i32 72, label %54
    i32 73, label %54
    i32 82, label %54
    i32 74, label %54
    i32 75, label %54
    i32 76, label %54
    i32 79, label %54
    i32 89, label %54
    i32 90, label %54
    i32 91, label %54
    i32 94, label %54
    i32 95, label %54
    i32 96, label %54
    i32 98, label %54
    i32 100, label %54
  ]

8:                                                ; preds = %2, %2, %2
  %9 = load ptr, ptr %3, align 8
  call void @x86_features_add_feature(ptr noundef %9, i32 noundef 82)
  br label %57

10:                                               ; preds = %2, %2, %2, %2
  %11 = load ptr, ptr %3, align 8
  call void @x86_features_add_feature(ptr noundef %11, i32 noundef 83)
  br label %57

12:                                               ; preds = %2
  %13 = load ptr, ptr %3, align 8
  call void @x86_features_add_feature(ptr noundef %13, i32 noundef 88)
  br label %57

14:                                               ; preds = %2, %2
  %15 = load ptr, ptr %3, align 8
  call void @x86_features_add_feature(ptr noundef %15, i32 noundef 84)
  br label %57

16:                                               ; preds = %2
  %17 = load ptr, ptr %3, align 8
  call void @x86_features_add_feature(ptr noundef %17, i32 noundef 85)
  br label %57

18:                                               ; preds = %2
  %19 = load ptr, ptr %3, align 8
  call void @x86_features_add_feature(ptr noundef %19, i32 noundef 86)
  br label %57

20:                                               ; preds = %2
  %21 = load ptr, ptr %3, align 8
  call void @x86_features_add_feature(ptr noundef %21, i32 noundef 8)
  %22 = load ptr, ptr %3, align 8
  call void @x86_features_add_feature(ptr noundef %22, i32 noundef 44)
  %23 = load ptr, ptr %3, align 8
  call void @x86_features_add_feature(ptr noundef %23, i32 noundef 45)
  br label %57

24:                                               ; preds = %2, %2, %2, %2
  %25 = load ptr, ptr %3, align 8
  call void @x86_features_add_feature(ptr noundef %25, i32 noundef 7)
  br label %57

26:                                               ; preds = %2
  %27 = load ptr, ptr %3, align 8
  call void @x86_features_add_feature(ptr noundef %27, i32 noundef 1)
  %28 = load ptr, ptr %3, align 8
  call void @x86_features_add_feature(ptr noundef %28, i32 noundef 7)
  br label %57

29:                                               ; preds = %2
  %30 = load ptr, ptr %3, align 8
  call void @x86_features_add_feature(ptr noundef %30, i32 noundef 7)
  %31 = load ptr, ptr %3, align 8
  call void @x86_features_add_feature(ptr noundef %31, i32 noundef 60)
  br label %57

32:                                               ; preds = %2, %2, %2
  %33 = load ptr, ptr %3, align 8
  call void @x86_features_add_feature(ptr noundef %33, i32 noundef 100)
  br label %57

34:                                               ; preds = %2, %2, %2, %2, %2, %2, %2, %2, %2, %2
  %35 = load ptr, ptr %3, align 8
  call void @x86_features_add_feature(ptr noundef %35, i32 noundef 17)
  br label %57

36:                                               ; preds = %2
  %37 = load ptr, ptr %3, align 8
  call void @x86_features_add_feature(ptr noundef %37, i32 noundef 87)
  %38 = load ptr, ptr %3, align 8
  call void @x86_features_add_feature(ptr noundef %38, i32 noundef 7)
  br label %57

39:                                               ; preds = %2
  %40 = load ptr, ptr %3, align 8
  call void @x86_features_add_feature(ptr noundef %40, i32 noundef 46)
  br label %57

41:                                               ; preds = %2, %2, %2, %2
  %42 = load ptr, ptr %3, align 8
  call void @x86_features_add_feature(ptr noundef %42, i32 noundef 6)
  br label %57

43:                                               ; preds = %2, %2, %2, %2, %2, %2, %2
  %44 = load ptr, ptr %3, align 8
  call void @x86_features_add_feature(ptr noundef %44, i32 noundef 8)
  br label %57

45:                                               ; preds = %2
  %46 = load ptr, ptr %3, align 8
  call void @x86_features_add_feature(ptr noundef %46, i32 noundef 13)
  %47 = load ptr, ptr %3, align 8
  call void @x86_features_add_feature(ptr noundef %47, i32 noundef 15)
  %48 = load ptr, ptr %3, align 8
  call void @x86_features_add_feature(ptr noundef %48, i32 noundef 23)
  br label %57

49:                                               ; preds = %2
  %50 = load ptr, ptr %3, align 8
  call void @x86_features_add_feature(ptr noundef %50, i32 noundef 52)
  br label %57

51:                                               ; preds = %2, %2, %2, %2
  %52 = load ptr, ptr %3, align 8
  call void @x86_features_add_feature(ptr noundef %52, i32 noundef 13)
  br label %57

53:                                               ; preds = %2, %2
  br label %57

54:                                               ; preds = %2, %2, %2, %2, %2, %2, %2, %2, %2, %2, %2, %2, %2, %2, %2, %2, %2, %2, %2, %2, %2, %2, %2, %2, %2, %2, %2, %2, %2, %2, %2, %2, %2, %2, %2, %2, %2, %2, %2, %2, %2, %2, %2, %2, %2, %2, %2, %2, %2, %2, %2
  br label %57

55:                                               ; preds = %2
  br label %56

56:                                               ; preds = %55
  call void (ptr, ...) @error_exit(ptr noundef @.str.16, ptr noundef @.str.17, ptr noundef @__func__.x86_features_add_feature, ptr noundef @.str.18, i32 noundef 667) #7
  unreachable

57:                                               ; preds = %54, %53, %51, %49, %45, %43, %41, %39, %36, %34, %32, %29, %26, %24, %20, %18, %16, %14, %12, %10, %8
  ret void
}