; Function Attrs: nounwind uwtable
define internal fastcc void @x86_features_add_feature(ptr noundef %0, i32 noundef %1) unnamed_addr #2 {
  %3 = getelementptr inbounds i8, ptr %0, i64 16
  %.sink.i.i28.i30 = getelementptr inbounds i8, ptr %0, i64 8
  br label %tailrecurse

tailrecurse:                                      ; preds = %tailrecurse.backedge, %2
  %.tr36 = phi i32 [ %1, %2 ], [ %.tr36.be, %tailrecurse.backedge ]
  %4 = icmp ult i32 %.tr36, 64
  %5 = add nsw i32 %.tr36, -64
  %.sink.idx.i = select i1 %4, i64 0, i64 8
  %.sink.i = getelementptr inbounds i8, ptr %0, i64 %.sink.idx.i
  %.sink7.v.v.i = select i1 %4, i32 %.tr36, i32 %5
  %.sink7.v.i = zext nneg i32 %.sink7.v.v.i to i64
  %.sink7.i = shl nuw i64 1, %.sink7.v.i
  %6 = load i64, ptr %.sink.i, align 8
  %7 = or i64 %.sink7.i, %6
  store i64 %7, ptr %.sink.i, align 8
  store ptr null, ptr %3, align 8
  switch i32 %.tr36, label %31 [
    i32 83, label %common.ret.sink.split.loopexit48
    i32 49, label %common.ret.sink.split.loopexit48
    i32 60, label %common.ret.sink.split.loopexit48
    i32 1, label %common.ret.sink.split
    i32 84, label %common.ret.sink.split
    i32 77, label %common.ret.sink.split
    i32 52, label %common.ret.sink.split
    i32 85, label %tailrecurse.backedge
    i32 87, label %8
    i32 88, label %8
    i32 86, label %9
    i32 7, label %10
    i32 17, label %11
    i32 8, label %12
    i32 44, label %12
    i32 45, label %12
    i32 80, label %12
    i32 92, label %13
    i32 93, label %18
    i32 101, label %common.ret.sink.split.loopexit
    i32 102, label %common.ret.sink.split.loopexit
    i32 103, label %common.ret.sink.split.loopexit
    i32 14, label %21
    i32 13, label %21
    i32 15, label %21
    i32 16, label %21
    i32 20, label %21
    i32 23, label %21
    i32 19, label %21
    i32 24, label %21
    i32 26, label %21
    i32 25, label %21
    i32 46, label %22
    i32 99, label %23
    i32 2, label %24
    i32 4, label %24
    i32 5, label %24
    i32 3, label %24
    i32 31, label %25
    i32 30, label %25
    i32 27, label %25
    i32 28, label %25
    i32 29, label %25
    i32 78, label %25
    i32 81, label %25
    i32 18, label %26
    i32 97, label %27
    i32 21, label %30
    i32 22, label %30
    i32 12, label %30
    i32 11, label %30
    i32 10, label %common.ret
    i32 9, label %common.ret
    i32 0, label %common.ret
    i32 6, label %common.ret
    i32 32, label %common.ret
    i32 33, label %common.ret
    i32 34, label %common.ret
    i32 35, label %common.ret
    i32 36, label %common.ret
    i32 37, label %common.ret
    i32 38, label %common.ret
    i32 40, label %common.ret
    i32 41, label %common.ret
    i32 39, label %common.ret
    i32 42, label %common.ret
    i32 43, label %common.ret
    i32 47, label %common.ret
    i32 48, label %common.ret
    i32 50, label %common.ret
    i32 51, label %common.ret
    i32 53, label %common.ret
    i32 54, label %common.ret
    i32 59, label %common.ret
    i32 55, label %common.ret
    i32 56, label %common.ret
    i32 57, label %common.ret
    i32 58, label %common.ret
    i32 61, label %common.ret
    i32 63, label %common.ret
    i32 62, label %common.ret
    i32 64, label %common.ret
    i32 65, label %common.ret
    i32 66, label %common.ret
    i32 67, label %common.ret
    i32 68, label %common.ret
    i32 69, label %common.ret
    i32 70, label %common.ret
    i32 71, label %common.ret
    i32 72, label %common.ret
    i32 73, label %common.ret
    i32 82, label %common.ret
    i32 74, label %common.ret
    i32 75, label %common.ret
    i32 76, label %common.ret
    i32 79, label %common.ret
    i32 89, label %common.ret
    i32 90, label %common.ret
    i32 91, label %common.ret
    i32 94, label %common.ret
    i32 95, label %common.ret
    i32 96, label %common.ret
    i32 98, label %common.ret
    i32 100, label %common.ret
  ]

8:                                                ; preds = %tailrecurse, %tailrecurse
  br label %common.ret.sink.split

9:                                                ; preds = %tailrecurse
  br label %tailrecurse.backedge

tailrecurse.backedge:                             ; preds = %9, %10, %11, %12, %13, %21, %22, %23, %25, %26, %30, %tailrecurse
  %.tr36.be = phi i32 [ 85, %9 ], [ 86, %10 ], [ 45, %11 ], [ 7, %12 ], [ 7, %13 ], [ 17, %21 ], [ 7, %22 ], [ 46, %23 ], [ 8, %25 ], [ 23, %26 ], [ 13, %30 ], [ 88, %tailrecurse ]
  br label %tailrecurse

10:                                               ; preds = %tailrecurse
  br label %tailrecurse.backedge

11:                                               ; preds = %tailrecurse
  tail call fastcc void @x86_features_add_feature(ptr noundef nonnull %0, i32 noundef 8)
  tail call fastcc void @x86_features_add_feature(ptr noundef nonnull %0, i32 noundef 44)
  br label %tailrecurse.backedge

12:                                               ; preds = %tailrecurse, %tailrecurse, %tailrecurse, %tailrecurse
  br label %tailrecurse.backedge

13:                                               ; preds = %tailrecurse
  %14 = load <2 x i64>, ptr %0, align 8
  %15 = or <2 x i64> %14, <i64 2, i64 786432>
  store <2 x i64> %15, ptr %0, align 8
  store ptr null, ptr %3, align 8
  br label %tailrecurse.backedge

common.ret.sink.split.loopexit:                   ; preds = %tailrecurse, %tailrecurse, %tailrecurse
  br label %common.ret.sink.split

common.ret.sink.split.loopexit48:                 ; preds = %tailrecurse, %tailrecurse, %tailrecurse
  br label %common.ret.sink.split

common.ret.sink.split:                            ; preds = %tailrecurse, %tailrecurse, %tailrecurse, %tailrecurse, %common.ret.sink.split.loopexit48, %common.ret.sink.split.loopexit, %18, %27, %24, %8
  %.sink.i.i28.i30.sink47 = phi ptr [ %.sink.i.i28.i30, %8 ], [ %0, %24 ], [ %.sink.i.i28.i30, %27 ], [ %.sink.i.i28.i30, %18 ], [ %.sink.i.i28.i30, %common.ret.sink.split.loopexit ], [ %.sink.i.i28.i30, %common.ret.sink.split.loopexit48 ], [ %.sink.i.i28.i30, %tailrecurse ], [ %.sink.i.i28.i30, %tailrecurse ], [ %.sink.i.i28.i30, %tailrecurse ], [ %.sink.i.i28.i30, %tailrecurse ]
  %.sink46 = phi i64 [ 1835008, %8 ], [ 64, %24 ], [ 786432, %27 ], [ 262144, %18 ], [ 68719476736, %common.ret.sink.split.loopexit ], [ 262144, %common.ret.sink.split.loopexit48 ], [ 786432, %tailrecurse ], [ 786432, %tailrecurse ], [ 786432, %tailrecurse ], [ 786432, %tailrecurse ]
  %16 = load i64, ptr %.sink.i.i28.i30.sink47, align 8
  %17 = or i64 %16, %.sink46
  store i64 %17, ptr %.sink.i.i28.i30.sink47, align 8
  store ptr null, ptr %3, align 8
  br label %common.ret

common.ret:                                       ; preds = %tailrecurse, %tailrecurse, %tailrecurse, %tailrecurse, %tailrecurse, %tailrecurse, %tailrecurse, %tailrecurse, %tailrecurse, %tailrecurse, %tailrecurse, %tailrecurse, %tailrecurse, %tailrecurse, %tailrecurse, %tailrecurse, %tailrecurse, %tailrecurse, %tailrecurse, %tailrecurse, %tailrecurse, %tailrecurse, %tailrecurse, %tailrecurse, %tailrecurse, %tailrecurse, %tailrecurse, %tailrecurse, %tailrecurse, %tailrecurse, %tailrecurse, %tailrecurse, %tailrecurse, %tailrecurse, %tailrecurse, %tailrecurse, %tailrecurse, %tailrecurse, %tailrecurse, %tailrecurse, %tailrecurse, %tailrecurse, %tailrecurse, %tailrecurse, %tailrecurse, %tailrecurse, %tailrecurse, %tailrecurse, %tailrecurse, %tailrecurse, %tailrecurse, %tailrecurse, %tailrecurse, %common.ret.sink.split
  ret void

18:                                               ; preds = %tailrecurse
  tail call fastcc void @x86_features_add_feature(ptr noundef nonnull %0, i32 noundef 7)
  %19 = load i64, ptr %0, align 8
  %20 = or i64 %19, 1152921504606846976
  store i64 %20, ptr %0, align 8
  br label %common.ret.sink.split

21:                                               ; preds = %tailrecurse, %tailrecurse, %tailrecurse, %tailrecurse, %tailrecurse, %tailrecurse, %tailrecurse, %tailrecurse, %tailrecurse, %tailrecurse
  br label %tailrecurse.backedge

22:                                               ; preds = %tailrecurse
  tail call fastcc void @x86_features_add_feature(ptr noundef nonnull %0, i32 noundef 87)
  br label %tailrecurse.backedge

23:                                               ; preds = %tailrecurse
  br label %tailrecurse.backedge

24:                                               ; preds = %tailrecurse, %tailrecurse, %tailrecurse, %tailrecurse
  br label %common.ret.sink.split

25:                                               ; preds = %tailrecurse, %tailrecurse, %tailrecurse, %tailrecurse, %tailrecurse, %tailrecurse, %tailrecurse
  br label %tailrecurse.backedge

26:                                               ; preds = %tailrecurse
  tail call fastcc void @x86_features_add_feature(ptr noundef nonnull %0, i32 noundef 13)
  tail call fastcc void @x86_features_add_feature(ptr noundef nonnull %0, i32 noundef 15)
  br label %tailrecurse.backedge

27:                                               ; preds = %tailrecurse
  %28 = load i64, ptr %0, align 8
  %29 = or i64 %28, 4503599627370496
  store i64 %29, ptr %0, align 8
  br label %common.ret.sink.split

30:                                               ; preds = %tailrecurse, %tailrecurse, %tailrecurse, %tailrecurse
  br label %tailrecurse.backedge

31:                                               ; preds = %tailrecurse
  tail call void (ptr, ...) @error_exit(ptr noundef nonnull @.str.16, ptr noundef nonnull @.str.17, ptr noundef nonnull @__func__.x86_features_add_feature, ptr noundef nonnull @.str.18, i32 noundef 667) #16
  unreachable
}